target datalayout = "e-m:e-p270:32:32-p271:32:32-p272:64:64-i64:64-i128:128-f80:128-n8:16:32:64-S128"
target triple = "x86_64-pc-linux-gnu"

; Function Attrs: mustprogress uwtable
define noundef ptr @_Z25coco_string_create_appendPKwS0_(ptr noundef %0, ptr noundef %1) #1 {
  %3 = alloca ptr, align 8
  %4 = alloca ptr, align 8
  %5 = alloca ptr, align 8
  %6 = alloca i32, align 4
  %7 = alloca i32, align 4
  store ptr %0, ptr %3, align 8
  store ptr %1, ptr %4, align 8
  store i32 0, ptr %6, align 4
  store i32 0, ptr %7, align 4
  %8 = load ptr, ptr %3, align 8
  %9 = icmp ne ptr %8, null
  br i1 %9, label %10, label %14

10:                                               ; preds = %2
  %11 = load ptr, ptr %3, align 8
  %12 = call i64 @wcslen(ptr noundef %11) #16
  %13 = trunc i64 %12 to i32
  store i32 %13, ptr %6, align 4
  br label %14

14:                                               ; preds = %10, %2
  %15 = load ptr, ptr %4, align 8
  %16 = icmp ne ptr %15, null
  br i1 %16, label %17, label %21

17:                                               ; preds = %14
  %18 = load ptr, ptr %4, align 8
  %19 = call i64 @wcslen(ptr noundef %18) #16
  %20 = trunc i64 %19 to i32
  store i32 %20, ptr %7, align 4
  br label %21

21:                                               ; preds = %17, %14
  %22 = load i32, ptr %6, align 4
  %23 = load i32, ptr %7, align 4
  %24 = add nsw i32 %22, %23
  %25 = add nsw i32 %24, 1
  %26 = sext i32 %25 to i64
  %27 = call { i64, i1 } @llvm.umul.with.overflow.i64(i64 %26, i64 4)
  %28 = extractvalue { i64, i1 } %27, 1
  %29 = extractvalue { i64, i1 } %27, 0
  %30 = select i1 %28, i64 -1, i64 %29
  %31 = call noalias noundef nonnull ptr @_Znam(i64 noundef %30) #14
  store ptr %31, ptr %5, align 8
  %32 = load ptr, ptr %3, align 8
  %33 = icmp ne ptr %32, null
  br i1 %33, label %34, label %38

34:                                               ; preds = %21
  %35 = load ptr, ptr %5, align 8
  %36 = load ptr, ptr %3, align 8
  %37 = call ptr @wcscpy(ptr noundef %35, ptr noundef %36) #12
  br label %38

38:                                               ; preds = %34, %21
  %39 = load ptr, ptr %4, align 8
  %40 = icmp ne ptr %39, null
  br i1 %40, label %41, label %48

41:                                               ; preds = %38
  %42 = load ptr, ptr %5, align 8
  %43 = load i32, ptr %6, align 4
  %44 = sext i32 %43 to i64
  %45 = getelementptr inbounds i32, ptr %42, i64 %44
  %46 = load ptr, ptr %4, align 8
  %47 = call ptr @wcscpy(ptr noundef %45, ptr noundef %46) #12
  br label %48

48:                                               ; preds = %41, %38
  %49 = load ptr, ptr %5, align 8
  %50 = load i32, ptr %6, align 4
  %51 = load i32, ptr %7, align 4
  %52 = add nsw i32 %50, %51
  %53 = sext i32 %52 to i64
  %54 = getelementptr inbounds i32, ptr %49, i64 %53
  store i32 0, ptr %54, align 4
  %55 = load ptr, ptr %5, align 8
  ret ptr %55
}

; Function Attrs: mustprogress uwtable
define void @_Z17coco_string_mergeRPwPKw(ptr noundef nonnull align 8 dereferenceable(8) %0, ptr noundef %1) #1 {
  %3 = alloca ptr, align 8
  %4 = alloca ptr, align 8
  %5 = alloca ptr, align 8
  store ptr %0, ptr %3, align 8
  store ptr %1, ptr %4, align 8
  %6 = load ptr, ptr %4, align 8
  %7 = icmp ne ptr %6, null
  br i1 %7, label %9, label %8

8:                                                ; preds = %2
  br label %21

9:                                                ; preds = %2
  %10 = load ptr, ptr %3, align 8
  %11 = load ptr, ptr %10, align 8
  %12 = load ptr, ptr %4, align 8
  %13 = call noundef ptr @_Z25coco_string_create_appendPKwS0_(ptr noundef %11, ptr noundef %12)
  store ptr %13, ptr %5, align 8
  %14 = load ptr, ptr %3, align 8
  %15 = load ptr, ptr %14, align 8
  %16 = icmp eq ptr %15, null
  br i1 %16, label %18, label %17

17:                                               ; preds = %9
  call void @_ZdaPv(ptr noundef %15) #13
  br label %18

18:                                               ; preds = %17, %9
  %19 = load ptr, ptr %5, align 8
  %20 = load ptr, ptr %3, align 8
  store ptr %19, ptr %20, align 8
  br label %21

21:                                               ; preds = %18, %8
  ret void
}