; Function Attrs: mustprogress uwtable
define void @_Z17coco_string_mergeRPwPKw(ptr nocapture noundef nonnull align 8 dereferenceable(8) %0, ptr noundef %1) local_unnamed_addr #2 {
  %.not = icmp eq ptr %1, null
  br i1 %.not, label %29, label %3

3:                                                ; preds = %2
  %4 = load ptr, ptr %0, align 8
  %.not.i = icmp eq ptr %4, null
  br i1 %.not.i, label %8, label %5

5:                                                ; preds = %3
  %6 = tail call i64 @wcslen(ptr noundef nonnull %4) #24
  %7 = trunc i64 %6 to i32
  br label %8

8:                                                ; preds = %5, %3
  %.016.i = phi i32 [ %7, %5 ], [ 0, %3 ]
  %9 = tail call i64 @wcslen(ptr noundef nonnull %1) #24
  %10 = trunc i64 %9 to i32
  %11 = add nsw i32 %.016.i, %10
  %12 = add nsw i32 %11, 1
  %13 = sext i32 %12 to i64
  %14 = icmp slt i32 %11, -1
  %15 = shl nsw i64 %13, 2
  %16 = select i1 %14, i64 -1, i64 %15
  %17 = tail call noalias noundef nonnull ptr @_Znam(i64 noundef %16) #21
  br i1 %.not.i, label %_Z25coco_string_create_appendPKwS0_.exit, label %18

18:                                               ; preds = %8
  %19 = tail call ptr @wcscpy(ptr noundef nonnull %17, ptr noundef nonnull %4) #22
  br label %_Z25coco_string_create_appendPKwS0_.exit

_Z25coco_string_create_appendPKwS0_.exit:         ; preds = %18, %8
  %20 = sext i32 %.016.i to i64
  %21 = getelementptr inbounds i32, ptr %17, i64 %20
  %22 = tail call ptr @wcscpy(ptr noundef nonnull %21, ptr noundef nonnull %1) #22
  %23 = sext i32 %11 to i64
  %24 = getelementptr inbounds i32, ptr %17, i64 %23
  store i32 0, ptr %24, align 4
  %25 = load ptr, ptr %0, align 8
  %26 = icmp eq ptr %25, null
  br i1 %26, label %28, label %27

27:                                               ; preds = %_Z25coco_string_create_appendPKwS0_.exit
  tail call void @_ZdaPv(ptr noundef nonnull %25) #20
  br label %28

28:                                               ; preds = %27, %_Z25coco_string_create_appendPKwS0_.exit
  store ptr %17, ptr %0, align 8
  br label %29

29:                                               ; preds = %2, %28
  ret void
}